; Function Attrs: mustprogress uwtable
define i32 @uhash_getiAndFound_77(ptr noundef readonly captures(none) %0, ptr noundef %1, ptr noundef writeonly captures(none) %2) local_unnamed_addr #0 {
  %4 = getelementptr inbounds nuw i8, ptr %0, i64 8
  %5 = load ptr, ptr %4, align 8, !tbaa !7
  %6 = tail call noundef i32 %5(ptr %1)
  %7 = load ptr, ptr %0, align 8, !tbaa !21
  %8 = and i32 %6, 2147483647
  %9 = xor i32 %8, 67108864
  %10 = getelementptr inbounds nuw i8, ptr %0, i64 52
  %11 = load i32, ptr %10, align 4, !tbaa !20
  %12 = srem i32 %9, %11
  %13 = getelementptr inbounds nuw i8, ptr %0, i64 16
  br label %14

14:                                               ; preds = %34, %3
  %.pre70.i = phi i32 [ %11, %3 ], [ %.pre.i, %34 ]
  %.036.i = phi i32 [ 0, %3 ], [ %.137.i, %34 ]
  %.033.i = phi i32 [ %12, %3 ], [ %36, %34 ]
  %.032.i = phi i32 [ -1, %3 ], [ %.1.i, %34 ]
  %15 = zext nneg i32 %.033.i to i64
  %16 = getelementptr inbounds nuw %struct.UHashElement, ptr %7, i64 %15
  %17 = load i32, ptr %16, align 8, !tbaa !22
  %18 = icmp eq i32 %17, %8
  br i1 %18, label %19, label %23

19:                                               ; preds = %14
  %20 = load ptr, ptr %13, align 8, !tbaa !13
  %21 = getelementptr inbounds nuw i8, ptr %16, i64 16
  %.sroa.0.0.copyload.i = load ptr, ptr %21, align 8, !tbaa !34
  %22 = tail call noundef signext i8 %20(ptr %1, ptr %.sroa.0.0.copyload.i)
  %.not.i = icmp eq i8 %22, 0
  br i1 %.not.i, label %._crit_edge.i, label %_ZL11_uhash_findPK10UHashtable8UElementi.exit

._crit_edge.i:                                    ; preds = %19
  %.pre.pre.i = load i32, ptr %10, align 4, !tbaa !20
  br label %28

23:                                               ; preds = %14
  %24 = icmp slt i32 %17, 0
  br i1 %24, label %25, label %28

25:                                               ; preds = %23
  %26 = icmp eq i32 %17, -2147483647
  %27 = icmp slt i32 %.032.i, 0
  %spec.select49.i = select i1 %27, i32 %.033.i, i32 %.032.i
  br i1 %26, label %.thread46.i, label %28

28:                                               ; preds = %25, %23, %._crit_edge.i
  %.pre.i = phi i32 [ %.pre.pre.i, %._crit_edge.i ], [ %.pre70.i, %23 ], [ %.pre70.i, %25 ]
  %.1.i = phi i32 [ %.032.i, %._crit_edge.i ], [ %.032.i, %23 ], [ %spec.select49.i, %25 ]
  %29 = icmp eq i32 %.036.i, 0
  br i1 %29, label %30, label %34

30:                                               ; preds = %28
  %31 = add nsw i32 %.pre.i, -1
  %32 = srem i32 %8, %31
  %33 = add nuw nsw i32 %32, 1
  br label %34

34:                                               ; preds = %30, %28
  %.137.i = phi i32 [ %33, %30 ], [ %.036.i, %28 ]
  %35 = add nuw nsw i32 %.137.i, %.033.i
  %36 = srem i32 %35, %.pre.i
  %.not41.i = icmp eq i32 %36, %12
  br i1 %.not41.i, label %37, label %14, !llvm.loop !37

37:                                               ; preds = %34
  %38 = icmp sgt i32 %.1.i, -1
  br i1 %38, label %.thread46.i, label %39

39:                                               ; preds = %37
  %.not42.i = icmp eq i32 %17, -2147483647
  br i1 %.not42.i, label %.thread46.i, label %40

40:                                               ; preds = %39
  tail call void @abort() #14
  unreachable

.thread46.i:                                      ; preds = %25, %39, %37
  %.235.i = phi i32 [ %12, %39 ], [ %.1.i, %37 ], [ %spec.select49.i, %25 ]
  %41 = zext nneg i32 %.235.i to i64
  %42 = getelementptr inbounds nuw %struct.UHashElement, ptr %7, i64 %41
  br label %_ZL11_uhash_findPK10UHashtable8UElementi.exit

_ZL11_uhash_findPK10UHashtable8UElementi.exit:    ; preds = %19, %.thread46.i
  %.0.i = phi ptr [ %42, %.thread46.i ], [ %16, %19 ]
  %43 = load i32, ptr %.0.i, align 8, !tbaa !22
  %44 = icmp sgt i32 %43, -1
  %45 = zext i1 %44 to i8
  store i8 %45, ptr %2, align 1, !tbaa !34
  %46 = getelementptr inbounds nuw i8, ptr %.0.i, i64 8
  %47 = load i32, ptr %46, align 8, !tbaa !34
  ret i32 %47
}